target datalayout = "e-m:e-p270:32:32-p271:32:32-p272:64:64-i64:64-i128:128-f80:128-n8:16:32:64-S128"
target triple = "x86_64-pc-linux-gnu"

%"class.gmx::EnergyGroupsPerCluster" = type { i32, %"class.std::vector", i32, i32 }
%"class.std::vector" = type { %"struct.std::_Vector_base" }
%"struct.std::_Vector_base" = type { %"struct.std::_Vector_base<int, gmx::Allocator<int, gmx::AlignedAllocationPolicy>>::_Vector_impl" }
%"struct.std::_Vector_base<int, gmx::Allocator<int, gmx::AlignedAllocationPolicy>>::_Vector_impl" = type { %"struct.std::_Vector_base<int, gmx::Allocator<int, gmx::AlignedAllocationPolicy>>::_Vector_impl_data" }
%"struct.std::_Vector_base<int, gmx::Allocator<int, gmx::AlignedAllocationPolicy>>::_Vector_impl_data" = type { ptr, ptr, ptr }
%"class.gmx::EnergyAccumulator.3" = type <{ i32, i32, i32, i32, i32, i32, i32, i32, ptr, %"class.std::vector.4", %"class.std::vector.4", i32, [4 x i8], %"class.std::vector.7", %"class.std::vector.7", i32, [4 x i8] }>
%"class.std::vector.4" = type { %"struct.std::_Vector_base.5" }
%"struct.std::_Vector_base.5" = type { %"struct.std::_Vector_base<float, gmx::Allocator<float, gmx::AlignedAllocationPolicy>>::_Vector_impl" }
%"struct.std::_Vector_base<float, gmx::Allocator<float, gmx::AlignedAllocationPolicy>>::_Vector_impl" = type { %"struct.std::_Vector_base<float, gmx::Allocator<float, gmx::AlignedAllocationPolicy>>::_Vector_impl_data" }
%"struct.std::_Vector_base<float, gmx::Allocator<float, gmx::AlignedAllocationPolicy>>::_Vector_impl_data" = type { ptr, ptr, ptr }
%"class.std::vector.7" = type { %"struct.std::_Vector_base.8" }
%"struct.std::_Vector_base.8" = type { %"struct.std::_Vector_base<float *, std::allocator<float *>>::_Vector_impl" }
%"struct.std::_Vector_base<float *, std::allocator<float *>>::_Vector_impl" = type { %"struct.std::_Vector_base<float *, std::allocator<float *>>::_Vector_impl_data" }
%"struct.std::_Vector_base<float *, std::allocator<float *>>::_Vector_impl_data" = type { ptr, ptr, ptr }
%"class.__gnu_cxx::__normal_iterator" = type { ptr }

; Function Attrs: inlinehint mustprogress nounwind uwtable
define linkonce_odr void @_ZSt9__fill_a1IPffEN9__gnu_cxx11__enable_ifIXsr11__is_scalarIT0_EE7__valueEvE6__typeET_S6_RKS3_(ptr noundef %0, ptr noundef %1, ptr noundef nonnull align 4 dereferenceable(4) %2) #5 comdat {
  %4 = alloca ptr, align 8
  %5 = alloca ptr, align 8
  %6 = alloca ptr, align 8
  %7 = alloca float, align 4
  store ptr %0, ptr %4, align 8, !tbaa !128
  store ptr %1, ptr %5, align 8, !tbaa !128
  store ptr %2, ptr %6, align 8, !tbaa !128
  call void @llvm.lifetime.start.p0(i64 4, ptr %7) #13
  %8 = load ptr, ptr %6, align 8, !tbaa !128
  %9 = load float, ptr %8, align 4, !tbaa !68
  store float %9, ptr %7, align 4, !tbaa !68
  br label %10

10:                                               ; preds = %17, %3
  %11 = load ptr, ptr %4, align 8, !tbaa !128
  %12 = load ptr, ptr %5, align 8, !tbaa !128
  %13 = icmp ne ptr %11, %12
  br i1 %13, label %14, label %20

14:                                               ; preds = %10
  %15 = load float, ptr %7, align 4, !tbaa !68
  %16 = load ptr, ptr %4, align 8, !tbaa !128
  store float %15, ptr %16, align 4, !tbaa !68
  br label %17

17:                                               ; preds = %14
  %18 = load ptr, ptr %4, align 8, !tbaa !128
  %19 = getelementptr inbounds nuw float, ptr %18, i32 1
  store ptr %19, ptr %4, align 8, !tbaa !128
  br label %10, !llvm.loop !144

20:                                               ; preds = %10
  call void @llvm.lifetime.end.p0(i64 4, ptr %7) #13
  ret void
}

; Function Attrs: mustprogress nounwind uwtable
define linkonce_odr noundef nonnull align 8 dereferenceable(8) ptr @_ZNK9__gnu_cxx17__normal_iteratorIPfSt6vectorIfN3gmx9AllocatorIfNS3_23AlignedAllocationPolicyEEEEE4baseEv(ptr noundef nonnull align 8 dereferenceable(8) %0) #1 comdat align 2 {
  %2 = alloca ptr, align 8
  store ptr %0, ptr %2, align 8, !tbaa !145
  %3 = load ptr, ptr %2, align 8
  %4 = getelementptr inbounds nuw %"class.__gnu_cxx::__normal_iterator", ptr %3, i32 0, i32 0
  ret ptr %4
}

; Function Attrs: inlinehint mustprogress uwtable
define linkonce_odr void @_ZSt9__fill_a1IPfSt6vectorIfN3gmx9AllocatorIfNS2_23AlignedAllocationPolicyEEEEfEvN9__gnu_cxx17__normal_iteratorIT_T0_EESB_RKT1_(ptr %0, ptr %1, ptr noundef nonnull align 4 dereferenceable(4) %2) #9 comdat {
  %4 = alloca %"class.__gnu_cxx::__normal_iterator", align 8
  %5 = alloca %"class.__gnu_cxx::__normal_iterator", align 8
  %6 = alloca ptr, align 8
  %7 = getelementptr inbounds nuw %"class.__gnu_cxx::__normal_iterator", ptr %4, i32 0, i32 0
  store ptr %0, ptr %7, align 8
  %8 = getelementptr inbounds nuw %"class.__gnu_cxx::__normal_iterator", ptr %5, i32 0, i32 0
  store ptr %1, ptr %8, align 8
  store ptr %2, ptr %6, align 8, !tbaa !128
  %9 = call noundef nonnull align 8 dereferenceable(8) ptr @_ZNK9__gnu_cxx17__normal_iteratorIPfSt6vectorIfN3gmx9AllocatorIfNS3_23AlignedAllocationPolicyEEEEE4baseEv(ptr noundef nonnull align 8 dereferenceable(8) %4) #13
  %10 = load ptr, ptr %9, align 8, !tbaa !128
  %11 = call noundef nonnull align 8 dereferenceable(8) ptr @_ZNK9__gnu_cxx17__normal_iteratorIPfSt6vectorIfN3gmx9AllocatorIfNS3_23AlignedAllocationPolicyEEEEE4baseEv(ptr noundef nonnull align 8 dereferenceable(8) %5) #13
  %12 = load ptr, ptr %11, align 8, !tbaa !128
  %13 = load ptr, ptr %6, align 8, !tbaa !128
  call void @_ZSt9__fill_a1IPffEN9__gnu_cxx11__enable_ifIXsr11__is_scalarIT0_EE7__valueEvE6__typeET_S6_RKS3_(ptr noundef %10, ptr noundef %12, ptr noundef nonnull align 4 dereferenceable(4) %13)
  ret void
}

; Function Attrs: mustprogress nounwind uwtable
define linkonce_odr noundef ptr @_ZNKSt6vectorIiN3gmx9AllocatorIiNS0_23AlignedAllocationPolicyEEEE11_M_data_ptrIiEEPT_S7_(ptr noundef nonnull align 8 dereferenceable(24) %0, ptr noundef %1) #1 comdat align 2 {
  %3 = alloca ptr, align 8
  %4 = alloca ptr, align 8
  store ptr %0, ptr %3, align 8, !tbaa !22
  store ptr %1, ptr %4, align 8, !tbaa !43
  %5 = load ptr, ptr %4, align 8, !tbaa !43
  ret ptr %5
}

; Function Attrs: inlinehint mustprogress uwtable
define linkonce_odr void @_ZSt8__fill_aIN9__gnu_cxx17__normal_iteratorIPfSt6vectorIfN3gmx9AllocatorIfNS4_23AlignedAllocationPolicyEEEEEEfEvT_SA_RKT0_(ptr %0, ptr %1, ptr noundef nonnull align 4 dereferenceable(4) %2) #9 comdat {
  %4 = alloca %"class.__gnu_cxx::__normal_iterator", align 8
  %5 = alloca %"class.__gnu_cxx::__normal_iterator", align 8
  %6 = alloca ptr, align 8
  %7 = alloca %"class.__gnu_cxx::__normal_iterator", align 8
  %8 = alloca %"class.__gnu_cxx::__normal_iterator", align 8
  %9 = getelementptr inbounds nuw %"class.__gnu_cxx::__normal_iterator", ptr %4, i32 0, i32 0
  store ptr %0, ptr %9, align 8
  %10 = getelementptr inbounds nuw %"class.__gnu_cxx::__normal_iterator", ptr %5, i32 0, i32 0
  store ptr %1, ptr %10, align 8
  store ptr %2, ptr %6, align 8, !tbaa !128
  call void @llvm.memcpy.p0.p0.i64(ptr align 8 %7, ptr align 8 %4, i64 8, i1 false), !tbaa.struct !141
  call void @llvm.memcpy.p0.p0.i64(ptr align 8 %8, ptr align 8 %5, i64 8, i1 false), !tbaa.struct !141
  %11 = load ptr, ptr %6, align 8, !tbaa !128
  %12 = getelementptr inbounds nuw %"class.__gnu_cxx::__normal_iterator", ptr %7, i32 0, i32 0
  %13 = load ptr, ptr %12, align 8
  %14 = getelementptr inbounds nuw %"class.__gnu_cxx::__normal_iterator", ptr %8, i32 0, i32 0
  %15 = load ptr, ptr %14, align 8
  call void @_ZSt9__fill_a1IPfSt6vectorIfN3gmx9AllocatorIfNS2_23AlignedAllocationPolicyEEEEfEvN9__gnu_cxx17__normal_iteratorIT_T0_EESB_RKT1_(ptr %13, ptr %15, ptr noundef nonnull align 4 dereferenceable(4) %11)
  ret void
}

; Function Attrs: mustprogress nounwind uwtable
define linkonce_odr void @_ZN9__gnu_cxx17__normal_iteratorIPfSt6vectorIfN3gmx9AllocatorIfNS3_23AlignedAllocationPolicyEEEEEC2ERKS1_(ptr noundef nonnull align 8 dereferenceable(8) %0, ptr noundef nonnull align 8 dereferenceable(8) %1) unnamed_addr #1 comdat align 2 {
  %3 = alloca ptr, align 8
  %4 = alloca ptr, align 8
  store ptr %0, ptr %3, align 8, !tbaa !145
  store ptr %1, ptr %4, align 8, !tbaa !134
  %5 = load ptr, ptr %3, align 8
  %6 = getelementptr inbounds nuw %"class.__gnu_cxx::__normal_iterator", ptr %5, i32 0, i32 0
  %7 = load ptr, ptr %4, align 8, !tbaa !134
  %8 = load ptr, ptr %7, align 8, !tbaa !128
  store ptr %8, ptr %6, align 8, !tbaa !147
  ret void
}

; Function Attrs: mustprogress nounwind uwtable
define linkonce_odr noundef ptr @_ZNKSt6vectorIiN3gmx9AllocatorIiNS0_23AlignedAllocationPolicyEEEE4dataEv(ptr noundef nonnull align 8 dereferenceable(24) %0) #1 comdat align 2 {
  %2 = alloca ptr, align 8
  store ptr %0, ptr %2, align 8, !tbaa !22
  %3 = load ptr, ptr %2, align 8
  %4 = getelementptr inbounds nuw %"struct.std::_Vector_base", ptr %3, i32 0, i32 0
  %5 = getelementptr inbounds nuw %"struct.std::_Vector_base<int, gmx::Allocator<int, gmx::AlignedAllocationPolicy>>::_Vector_impl_data", ptr %4, i32 0, i32 0
  %6 = load ptr, ptr %5, align 8, !tbaa !30
  %7 = call noundef ptr @_ZNKSt6vectorIiN3gmx9AllocatorIiNS0_23AlignedAllocationPolicyEEEE11_M_data_ptrIiEEPT_S7_(ptr noundef nonnull align 8 dereferenceable(24) %3, ptr noundef %6) #13
  ret ptr %7
}

; Function Attrs: inlinehint mustprogress uwtable
define linkonce_odr void @_ZSt4fillIN9__gnu_cxx17__normal_iteratorIPfSt6vectorIfN3gmx9AllocatorIfNS4_23AlignedAllocationPolicyEEEEEEfEvT_SA_RKT0_(ptr %0, ptr %1, ptr noundef nonnull align 4 dereferenceable(4) %2) #9 comdat {
  %4 = alloca %"class.__gnu_cxx::__normal_iterator", align 8
  %5 = alloca %"class.__gnu_cxx::__normal_iterator", align 8
  %6 = alloca ptr, align 8
  %7 = alloca %"class.__gnu_cxx::__normal_iterator", align 8
  %8 = alloca %"class.__gnu_cxx::__normal_iterator", align 8
  %9 = getelementptr inbounds nuw %"class.__gnu_cxx::__normal_iterator", ptr %4, i32 0, i32 0
  store ptr %0, ptr %9, align 8
  %10 = getelementptr inbounds nuw %"class.__gnu_cxx::__normal_iterator", ptr %5, i32 0, i32 0
  store ptr %1, ptr %10, align 8
  store ptr %2, ptr %6, align 8, !tbaa !128
  call void @llvm.memcpy.p0.p0.i64(ptr align 8 %7, ptr align 8 %4, i64 8, i1 false), !tbaa.struct !141
  call void @llvm.memcpy.p0.p0.i64(ptr align 8 %8, ptr align 8 %5, i64 8, i1 false), !tbaa.struct !141
  %11 = load ptr, ptr %6, align 8, !tbaa !128
  %12 = getelementptr inbounds nuw %"class.__gnu_cxx::__normal_iterator", ptr %7, i32 0, i32 0
  %13 = load ptr, ptr %12, align 8
  %14 = getelementptr inbounds nuw %"class.__gnu_cxx::__normal_iterator", ptr %8, i32 0, i32 0
  %15 = load ptr, ptr %14, align 8
  call void @_ZSt8__fill_aIN9__gnu_cxx17__normal_iteratorIPfSt6vectorIfN3gmx9AllocatorIfNS4_23AlignedAllocationPolicyEEEEEEfEvT_SA_RKT0_(ptr %13, ptr %15, ptr noundef nonnull align 4 dereferenceable(4) %11)
  ret void
}

; Function Attrs: mustprogress nounwind uwtable
define linkonce_odr noundef float @_Zli5_reale(x86_fp80 noundef %0) #1 comdat {
  %2 = alloca x86_fp80, align 16
  store x86_fp80 %0, ptr %2, align 16, !tbaa !142
  %3 = load x86_fp80, ptr %2, align 16, !tbaa !142
  %4 = fptrunc x86_fp80 %3 to float
  ret float %4
}

; Function Attrs: mustprogress nounwind uwtable
define linkonce_odr ptr @_ZNSt6vectorIfN3gmx9AllocatorIfNS0_23AlignedAllocationPolicyEEEE3endEv(ptr noundef nonnull align 8 dereferenceable(24) %0) #1 comdat align 2 {
  %2 = alloca %"class.__gnu_cxx::__normal_iterator", align 8
  %3 = alloca ptr, align 8
  store ptr %0, ptr %3, align 8, !tbaa !102
  %4 = load ptr, ptr %3, align 8
  %5 = getelementptr inbounds nuw %"struct.std::_Vector_base.5", ptr %4, i32 0, i32 0
  %6 = getelementptr inbounds nuw %"struct.std::_Vector_base<float, gmx::Allocator<float, gmx::AlignedAllocationPolicy>>::_Vector_impl_data", ptr %5, i32 0, i32 1
  call void @_ZN9__gnu_cxx17__normal_iteratorIPfSt6vectorIfN3gmx9AllocatorIfNS3_23AlignedAllocationPolicyEEEEEC2ERKS1_(ptr noundef nonnull align 8 dereferenceable(8) %2, ptr noundef nonnull align 8 dereferenceable(8) %6) #13
  %7 = getelementptr inbounds nuw %"class.__gnu_cxx::__normal_iterator", ptr %2, i32 0, i32 0
  %8 = load ptr, ptr %7, align 8
  ret ptr %8
}

; Function Attrs: mustprogress nounwind uwtable
define linkonce_odr ptr @_ZNSt6vectorIfN3gmx9AllocatorIfNS0_23AlignedAllocationPolicyEEEE5beginEv(ptr noundef nonnull align 8 dereferenceable(24) %0) #1 comdat align 2 {
  %2 = alloca %"class.__gnu_cxx::__normal_iterator", align 8
  %3 = alloca ptr, align 8
  store ptr %0, ptr %3, align 8, !tbaa !102
  %4 = load ptr, ptr %3, align 8
  %5 = getelementptr inbounds nuw %"struct.std::_Vector_base.5", ptr %4, i32 0, i32 0
  %6 = getelementptr inbounds nuw %"struct.std::_Vector_base<float, gmx::Allocator<float, gmx::AlignedAllocationPolicy>>::_Vector_impl_data", ptr %5, i32 0, i32 0
  call void @_ZN9__gnu_cxx17__normal_iteratorIPfSt6vectorIfN3gmx9AllocatorIfNS3_23AlignedAllocationPolicyEEEEEC2ERKS1_(ptr noundef nonnull align 8 dereferenceable(8) %2, ptr noundef nonnull align 8 dereferenceable(8) %6) #13
  %7 = getelementptr inbounds nuw %"class.__gnu_cxx::__normal_iterator", ptr %2, i32 0, i32 0
  %8 = load ptr, ptr %7, align 8
  ret ptr %8
}

; Function Attrs: mustprogress uwtable
define void @_ZN3gmx17EnergyAccumulatorILb1ELb1EE43clearEnergiesAndSetEnergyGroupsForJClustersERKNS_22EnergyGroupsPerClusterE(ptr noundef nonnull align 8 dereferenceable(148) %0, ptr noundef nonnull align 8 dereferenceable(40) %1) #0 align 2 {
  %3 = alloca ptr, align 8
  %4 = alloca ptr, align 8
  %5 = alloca %"class.__gnu_cxx::__normal_iterator", align 8
  %6 = alloca %"class.__gnu_cxx::__normal_iterator", align 8
  %7 = alloca float, align 4
  %8 = alloca %"class.__gnu_cxx::__normal_iterator", align 8
  %9 = alloca %"class.__gnu_cxx::__normal_iterator", align 8
  %10 = alloca float, align 4
  store ptr %0, ptr %3, align 8, !tbaa !79
  store ptr %1, ptr %4, align 8, !tbaa !4
  %11 = load ptr, ptr %3, align 8
  %12 = getelementptr inbounds nuw %"class.gmx::EnergyAccumulator.3", ptr %11, i32 0, i32 10
  %13 = call ptr @_ZNSt6vectorIfN3gmx9AllocatorIfNS0_23AlignedAllocationPolicyEEEE5beginEv(ptr noundef nonnull align 8 dereferenceable(24) %12) #13
  %14 = getelementptr inbounds nuw %"class.__gnu_cxx::__normal_iterator", ptr %5, i32 0, i32 0
  store ptr %13, ptr %14, align 8
  %15 = getelementptr inbounds nuw %"class.gmx::EnergyAccumulator.3", ptr %11, i32 0, i32 10
  %16 = call ptr @_ZNSt6vectorIfN3gmx9AllocatorIfNS0_23AlignedAllocationPolicyEEEE3endEv(ptr noundef nonnull align 8 dereferenceable(24) %15) #13
  %17 = getelementptr inbounds nuw %"class.__gnu_cxx::__normal_iterator", ptr %6, i32 0, i32 0
  store ptr %16, ptr %17, align 8
  call void @llvm.lifetime.start.p0(i64 4, ptr %7) #13
  %18 = call noundef float @_Zli5_reale(x86_fp80 noundef 0xK00000000000000000000)
  store float %18, ptr %7, align 4, !tbaa !68
  %19 = getelementptr inbounds nuw %"class.__gnu_cxx::__normal_iterator", ptr %5, i32 0, i32 0
  %20 = load ptr, ptr %19, align 8
  %21 = getelementptr inbounds nuw %"class.__gnu_cxx::__normal_iterator", ptr %6, i32 0, i32 0
  %22 = load ptr, ptr %21, align 8
  call void @_ZSt4fillIN9__gnu_cxx17__normal_iteratorIPfSt6vectorIfN3gmx9AllocatorIfNS4_23AlignedAllocationPolicyEEEEEEfEvT_SA_RKT0_(ptr %20, ptr %22, ptr noundef nonnull align 4 dereferenceable(4) %7)
  call void @llvm.lifetime.end.p0(i64 4, ptr %7) #13
  %23 = getelementptr inbounds nuw %"class.gmx::EnergyAccumulator.3", ptr %11, i32 0, i32 9
  %24 = call ptr @_ZNSt6vectorIfN3gmx9AllocatorIfNS0_23AlignedAllocationPolicyEEEE5beginEv(ptr noundef nonnull align 8 dereferenceable(24) %23) #13
  %25 = getelementptr inbounds nuw %"class.__gnu_cxx::__normal_iterator", ptr %8, i32 0, i32 0
  store ptr %24, ptr %25, align 8
  %26 = getelementptr inbounds nuw %"class.gmx::EnergyAccumulator.3", ptr %11, i32 0, i32 9
  %27 = call ptr @_ZNSt6vectorIfN3gmx9AllocatorIfNS0_23AlignedAllocationPolicyEEEE3endEv(ptr noundef nonnull align 8 dereferenceable(24) %26) #13
  %28 = getelementptr inbounds nuw %"class.__gnu_cxx::__normal_iterator", ptr %9, i32 0, i32 0
  store ptr %27, ptr %28, align 8
  call void @llvm.lifetime.start.p0(i64 4, ptr %10) #13
  %29 = call noundef float @_Zli5_reale(x86_fp80 noundef 0xK00000000000000000000)
  store float %29, ptr %10, align 4, !tbaa !68
  %30 = getelementptr inbounds nuw %"class.__gnu_cxx::__normal_iterator", ptr %8, i32 0, i32 0
  %31 = load ptr, ptr %30, align 8
  %32 = getelementptr inbounds nuw %"class.__gnu_cxx::__normal_iterator", ptr %9, i32 0, i32 0
  %33 = load ptr, ptr %32, align 8
  call void @_ZSt4fillIN9__gnu_cxx17__normal_iteratorIPfSt6vectorIfN3gmx9AllocatorIfNS4_23AlignedAllocationPolicyEEEEEEfEvT_SA_RKT0_(ptr %31, ptr %33, ptr noundef nonnull align 4 dereferenceable(4) %10)
  call void @llvm.lifetime.end.p0(i64 4, ptr %10) #13
  %34 = load ptr, ptr %4, align 8, !tbaa !4
  %35 = getelementptr inbounds nuw %"class.gmx::EnergyGroupsPerCluster", ptr %34, i32 0, i32 1
  %36 = call noundef ptr @_ZNKSt6vectorIiN3gmx9AllocatorIiNS0_23AlignedAllocationPolicyEEEE4dataEv(ptr noundef nonnull align 8 dereferenceable(24) %35) #13
  %37 = getelementptr inbounds nuw %"class.gmx::EnergyAccumulator.3", ptr %11, i32 0, i32 8
  store ptr %36, ptr %37, align 8, !tbaa !100
  ret void
}