; Function Attrs: mustprogress nofree norecurse nosync nounwind willreturn memory(write, argmem: readwrite, inaccessiblemem: none) uwtable
define void @_ZN3gmx17EnergyAccumulatorILb1ELb1EE43clearEnergiesAndSetEnergyGroupsForJClustersERKNS_22EnergyGroupsPerClusterE(ptr noundef nonnull align 8 captures(none) dereferenceable(148) initializes((32, 40)) %0, ptr noundef nonnull readonly align 8 captures(none) dereferenceable(40) %1) local_unnamed_addr #13 align 2 {
  %3 = getelementptr inbounds nuw i8, ptr %0, i64 64
  %4 = load ptr, ptr %3, align 8, !tbaa !72
  %5 = getelementptr inbounds nuw i8, ptr %0, i64 72
  %6 = load ptr, ptr %5, align 8, !tbaa !72
  %.not6.i.i.i.i = icmp eq ptr %4, %6
  br i1 %.not6.i.i.i.i, label %_ZSt4fillIN9__gnu_cxx17__normal_iteratorIPfSt6vectorIfN3gmx9AllocatorIfNS4_23AlignedAllocationPolicyEEEEEEfEvT_SA_RKT0_.exit, label %.lr.ph.i.i.i.i.preheader

.lr.ph.i.i.i.i.preheader:                         ; preds = %2
  %7 = ptrtoint ptr %6 to i64
  %8 = ptrtoint ptr %4 to i64
  %9 = add i64 %7, -4
  %10 = sub i64 %9, %8
  %11 = and i64 %10, -4
  %12 = add i64 %11, 4
  tail call void @llvm.memset.p0.i64(ptr align 4 %4, i8 0, i64 %12, i1 false), !tbaa !37
  br label %_ZSt4fillIN9__gnu_cxx17__normal_iteratorIPfSt6vectorIfN3gmx9AllocatorIfNS4_23AlignedAllocationPolicyEEEEEEfEvT_SA_RKT0_.exit

_ZSt4fillIN9__gnu_cxx17__normal_iteratorIPfSt6vectorIfN3gmx9AllocatorIfNS4_23AlignedAllocationPolicyEEEEEEfEvT_SA_RKT0_.exit: ; preds = %.lr.ph.i.i.i.i.preheader, %2
  %13 = getelementptr inbounds nuw i8, ptr %0, i64 40
  %14 = load ptr, ptr %13, align 8, !tbaa !72
  %15 = getelementptr inbounds nuw i8, ptr %0, i64 48
  %16 = load ptr, ptr %15, align 8, !tbaa !72
  %.not6.i.i.i.i5 = icmp eq ptr %14, %16
  br i1 %.not6.i.i.i.i5, label %_ZSt4fillIN9__gnu_cxx17__normal_iteratorIPfSt6vectorIfN3gmx9AllocatorIfNS4_23AlignedAllocationPolicyEEEEEEfEvT_SA_RKT0_.exit9, label %.lr.ph.i.i.i.i6.preheader

.lr.ph.i.i.i.i6.preheader:                        ; preds = %_ZSt4fillIN9__gnu_cxx17__normal_iteratorIPfSt6vectorIfN3gmx9AllocatorIfNS4_23AlignedAllocationPolicyEEEEEEfEvT_SA_RKT0_.exit
  %17 = ptrtoint ptr %16 to i64
  %18 = ptrtoint ptr %14 to i64
  %19 = add i64 %17, -4
  %20 = sub i64 %19, %18
  %21 = and i64 %20, -4
  %22 = add i64 %21, 4
  tail call void @llvm.memset.p0.i64(ptr align 4 %14, i8 0, i64 %22, i1 false), !tbaa !37
  br label %_ZSt4fillIN9__gnu_cxx17__normal_iteratorIPfSt6vectorIfN3gmx9AllocatorIfNS4_23AlignedAllocationPolicyEEEEEEfEvT_SA_RKT0_.exit9

_ZSt4fillIN9__gnu_cxx17__normal_iteratorIPfSt6vectorIfN3gmx9AllocatorIfNS4_23AlignedAllocationPolicyEEEEEEfEvT_SA_RKT0_.exit9: ; preds = %.lr.ph.i.i.i.i6.preheader, %_ZSt4fillIN9__gnu_cxx17__normal_iteratorIPfSt6vectorIfN3gmx9AllocatorIfNS4_23AlignedAllocationPolicyEEEEEEfEvT_SA_RKT0_.exit
  %23 = getelementptr inbounds nuw i8, ptr %1, i64 8
  %24 = load ptr, ptr %23, align 8, !tbaa !20
  %25 = getelementptr inbounds nuw i8, ptr %0, i64 32
  store ptr %24, ptr %25, align 8, !tbaa !73
  ret void
}